target datalayout = "e-m:e-p270:32:32-p271:32:32-p272:64:64-i64:64-i128:128-f80:128-n8:16:32:64-S128"
target triple = "x86_64-unknown-linux-gnu"

%"class.QuantLib::BespokeCalendar::Impl" = type <{ %"class.QuantLib::Calendar::Impl", %"class.std::__cxx11::basic_string", i32, [4 x i8] }>
%"class.QuantLib::Calendar::Impl" = type { ptr, %"class.std::set", %"class.std::set" }
%"class.std::set" = type { %"class.std::_Rb_tree" }
%"class.std::_Rb_tree" = type { %"struct.std::_Rb_tree<QuantLib::Date, QuantLib::Date, std::_Identity<QuantLib::Date>, std::less<QuantLib::Date>>::_Rb_tree_impl" }
%"struct.std::_Rb_tree<QuantLib::Date, QuantLib::Date, std::_Identity<QuantLib::Date>, std::less<QuantLib::Date>>::_Rb_tree_impl" = type { [8 x i8], %"struct.std::_Rb_tree_header" }
%"struct.std::_Rb_tree_header" = type { %"struct.std::_Rb_tree_node_base", i64 }
%"struct.std::_Rb_tree_node_base" = type { i32, ptr, ptr, ptr }
%"class.std::__cxx11::basic_string" = type { %"struct.std::__cxx11::basic_string<char>::_Alloc_hider", i64, %union.anon }
%"struct.std::__cxx11::basic_string<char>::_Alloc_hider" = type { ptr }
%union.anon = type { i64, [8 x i8] }

; Function Attrs: mustprogress nounwind uwtable
define void @_ZN8QuantLib15BespokeCalendar4Impl10addWeekendENS_7WeekdayE(ptr noundef nonnull align 8 dereferenceable(144) %this, i32 noundef %w) #0 align 2 {
entry:
  %this.addr = alloca ptr, align 8
  %w.addr = alloca i32, align 4
  store ptr %this, ptr %this.addr, align 8, !tbaa !3
  store i32 %w, ptr %w.addr, align 4, !tbaa !25
  %this1 = load ptr, ptr %this.addr, align 8
  %0 = load i32, ptr %w.addr, align 4, !tbaa !25
  %shl = shl i32 1, %0
  %weekend_mask_ = getelementptr inbounds nuw %"class.QuantLib::BespokeCalendar::Impl", ptr %this1, i32 0, i32 2
  %1 = load i32, ptr %weekend_mask_, align 8, !tbaa !9
  %or = or i32 %1, %shl
  store i32 %or, ptr %weekend_mask_, align 8, !tbaa !9
  ret void
}