; Function Attrs: mustprogress nofree norecurse nosync nounwind willreturn memory(argmem: readwrite) uwtable
define void @_ZN8QuantLib15BespokeCalendar4Impl10addWeekendENS_7WeekdayE(ptr nocapture noundef nonnull align 8 dereferenceable(144) %this, i32 noundef %w) local_unnamed_addr #3 align 2 {
entry:
  %shl = shl nuw i32 1, %w
  %weekend_mask_ = getelementptr inbounds nuw i8, ptr %this, i64 136
  %0 = load i32, ptr %weekend_mask_, align 8, !tbaa !23
  %or = or i32 %0, %shl
  store i32 %or, ptr %weekend_mask_, align 8, !tbaa !23
  ret void
}